Certificate:
    Data:
        Version: 3 (0x2)
        Serial Number: 2 (0x2)
        Signature Algorithm: sha256WithRSAEncryption
        Issuer: C=CN, ST=GuangDong, L=GuangZhou, O=ZZXIA, OU=GGBang, CN=ZZXIA-ROOT-CA/emailAddress=admin@zzxia.vip
        Validity
            Not Before: Mar  9 10:17:12 2023 GMT
            Not After : Mar  8 10:17:12 2024 GMT
        Subject: C=CN, ST=GuangDong, O=ZJLH, OU=IT, CN=zjlh.lan/emailAddress=admin@zjlh.lan
        Subject Public Key Info:
            Public Key Algorithm: rsaEncryption
                RSA Public-Key: (2048 bit)
                Modulus:
                    00:df:80:da:f8:fa:7c:02:5d:3a:57:8c:1a:80:23:
                    61:ae:3f:76:bb:10:50:f8:ad:27:0c:84:5e:77:94:
                    25:f5:2c:72:ad:2c:41:7d:47:e9:64:4f:82:e2:44:
                    77:5f:8b:55:4a:f7:4c:00:ab:d9:e1:94:67:30:ea:
                    cc:ac:0a:37:5f:68:3f:5d:95:88:31:bc:69:84:ba:
                    f3:67:42:ba:fb:a6:cc:4a:1c:1c:62:e7:17:06:f5:
                    05:94:85:70:32:7d:5c:20:56:30:4d:5d:6e:cf:d3:
                    8e:0a:db:47:02:64:df:e5:22:a1:8f:71:88:d7:91:
                    8c:26:f8:1f:09:08:77:9c:2d:91:cd:dc:55:a4:95:
                    0e:ea:c7:e1:c7:98:39:09:e8:9f:74:e7:55:4a:8e:
                    66:d3:07:f5:83:29:e2:51:3c:5a:df:6a:d7:c1:ff:
                    1a:be:2e:39:a5:75:33:a3:cc:47:dc:be:a1:ba:59:
                    a1:b4:45:7a:11:02:d8:9b:cf:b7:67:16:68:5e:db:
                    27:69:48:05:ea:87:ca:9a:62:c5:96:80:5a:66:51:
                    f7:d1:1e:39:10:c9:b2:2a:bf:7e:23:f6:e9:9f:c0:
                    aa:57:ab:5b:3d:ee:09:5f:66:91:bc:21:d9:8c:88:
                    ef:38:20:9b:44:01:39:7c:79:61:40:5d:36:9c:3e:
                    1a:d5
                Exponent: 65537 (0x10001)
        X509v3 extensions:
            X509v3 Basic Constraints: 
                CA:FALSE
            X509v3 Key Usage: 
                Digital Signature, Non Repudiation, Key Encipherment, Data Encipherment, Key Agreement
            X509v3 Extended Key Usage: 
                TLS Web Server Authentication
            X509v3 Subject Alternative Name: 
                DNS:zjlh.lan, DNS:*.zjlh.lan, DNS:docker-repo
    Signature Algorithm: sha256WithRSAEncryption
         12:f6:d0:5b:f6:8d:a3:63:6c:06:77:da:4c:7b:63:94:b9:45:
         d6:13:77:38:ea:f4:b6:63:68:22:e9:65:6b:67:45:d4:d2:d4:
         ef:8e:ac:32:b6:57:30:4c:e5:96:e4:60:7f:a8:70:65:7e:af:
         2c:41:e5:fb:4d:35:3d:29:b5:39:e7:c2:a5:d5:72:13:51:87:
         72:5b:fb:70:17:58:36:94:af:b5:d3:61:74:b6:44:d5:78:3b:
         10:a4:92:da:18:52:9e:f2:ae:eb:ae:76:73:81:ad:0e:91:62:
         ba:12:a2:ee:4c:92:c7:95:8e:da:83:bb:e8:5d:26:b5:23:d6:
         93:49:b2:78:78:39:b4:95:b9:07:0a:eb:e3:ab:b7:c0:b9:4b:
         cd:6e:86:4f:5e:2f:7e:22:73:98:5a:b8:5a:08:9c:50:3f:86:
         9f:7f:ec:03:d2:cb:fb:97:55:09:64:47:44:1d:71:25:33:33:
         ee:0a:f1:92:aa:8a:00:3a:d7:3c:b0:96:f8:a8:66:1c:f1:6e:
         ce:b5:ba:d5:2f:36:65:d6:c8:a9:4e:72:8b:b0:a6:e7:8f:d0:
         c0:63:37:12:41:4a:ac:fe:e0:d8:ca:8a:ce:f3:fd:10:04:ad:
         25:6e:b0:09:0a:e8:f2:6f:e2:6b:fe:77:2b:23:64:04:55:4a:
         ba:06:34:aa:a4:3b:4c:14:0e:d8:e0:b1:fe:4e:07:4e:ca:d4:
         d8:9b:13:01:18:49:83:6f:44:ac:a8:8b:90:39:b6:58:25:44:
         a4:63:8c:ce:b0:26:78:58:23:46:71:0a:12:ea:84:5f:2d:0e:
         9d:41:9b:ad:f5:e0:ab:81:52:bc:90:9d:63:aa:2a:bb:d8:06:
         ed:a8:26:d6:b9:49:6e:24:ca:bb:df:0b:8d:5d:7e:4c:dd:8d:
         77:3c:ca:4a:a8:7e:da:17:38:10:f1:04:5b:7a:73:6d:64:2d:
         1b:fd:cc:e6:0a:88:1e:49:0e:80:90:52:2e:f2:5c:21:90:73:
         59:cb:99:d4:63:7c:ea:da:f1:f4:cc:d6:d5:61:99:e4:25:9f:
         f1:b9:f2:6c:a7:bc:22:dc:fd:70:c2:5f:9b:20:ad:2e:9e:bc:
         e0:c0:31:58:29:c2:c0:ae:46:f4:8e:2b:60:8a:8a:ec:1c:5d:
         c7:a1:4c:43:8c:06:ca:d2:b2:4c:ae:ef:07:d0:07:5b:33:d6:
         4e:df:8c:ad:2b:56:8f:38:9a:a2:0e:90:27:a1:ad:46:15:65:
         5c:35:bf:40:10:68:8c:be:59:5d:58:22:84:7f:cc:c0:ec:01:
         53:4f:fc:25:11:c4:be:51:b4:03:61:e2:d9:2d:e1:a1:0c:01:
         a5:21:ce:d6:4c:82:f3:cf
-----BEGIN CERTIFICATE-----
MIIE1jCCAr6gAwIBAgIBAjANBgkqhkiG9w0BAQsFADCBjjELMAkGA1UEBhMCQ04x
EjAQBgNVBAgMCUd1YW5nRG9uZzESMBAGA1UEBwwJR3VhbmdaaG91MQ4wDAYDVQQK
DAVaWlhJQTEPMA0GA1UECwwGR0dCYW5nMRYwFAYDVQQDDA1aWlhJQS1ST09ULUNB
MR4wHAYJKoZIhvcNAQkBFg9hZG1pbkB6enhpYS52aXAwHhcNMjMwMzA5MTAxNzEy
WhcNMjQwMzA4MTAxNzEyWjBvMQswCQYDVQQGEwJDTjESMBAGA1UECAwJR3VhbmdE
b25nMQ0wCwYDVQQKDARaSkxIMQswCQYDVQQLDAJJVDERMA8GA1UEAwwIempsaC5s
YW4xHTAbBgkqhkiG9w0BCQEWDmFkbWluQHpqbGgubGFuMIIBIjANBgkqhkiG9w0B
AQEFAAOCAQ8AMIIBCgKCAQEA34Da+Pp8Al06V4wagCNhrj92uxBQ+K0nDIRed5Ql
9SxyrSxBfUfpZE+C4kR3X4tVSvdMAKvZ4ZRnMOrMrAo3X2g/XZWIMbxphLrzZ0K6
+6bMShwcYucXBvUFlIVwMn1cIFYwTV1uz9OOCttHAmTf5SKhj3GI15GMJvgfCQh3
nC2RzdxVpJUO6sfhx5g5CeifdOdVSo5m0wf1gyniUTxa32rXwf8avi45pXUzo8xH
3L6hulmhtEV6EQLYm8+3ZxZoXtsnaUgF6ofKmmLFloBaZlH30R45EMmyKr9+I/bp
n8CqV6tbPe4JX2aRvCHZjIjvOCCbRAE5fHlhQF02nD4a1QIDAQABo10wWzAJBgNV
HRMEAjAAMAsGA1UdDwQEAwID+DATBgNVHSUEDDAKBggrBgEFBQcDATAsBgNVHREE
JTAjggh6amxoLmxhboIKKi56amxoLmxhboILZG9ja2VyLXJlcG8wDQYJKoZIhvcN
AQELBQADggIBABL20Fv2jaNjbAZ32kx7Y5S5RdYTdzjq9LZjaCLpZWtnRdTS1O+O
rDK2VzBM5ZbkYH+ocGV+ryxB5ftNNT0ptTnnwqXVchNRh3Jb+3AXWDaUr7XTYXS2
RNV4OxCkktoYUp7yruuudnOBrQ6RYroSou5MkseVjtqDu+hdJrUj1pNJsnh4ObSV
uQcK6+Ort8C5S81uhk9eL34ic5hauFoInFA/hp9/7APSy/uXVQlkR0QdcSUzM+4K
8ZKqigA61zywlvioZhzxbs61utUvNmXWyKlOcouwpueP0MBjNxJBSqz+4NjKis7z
/RAErSVusAkK6PJv4mv+dysjZARVSroGNKqkO0wUDtjgsf5OB07K1NibEwEYSYNv
RKyoi5A5tlglRKRjjM6wJnhYI0ZxChLqhF8tDp1Bm6314KuBUryQnWOqKrvYBu2o
Jta5SW4kyrvfC41dfkzdjXc8ykqoftoXOBDxBFt6c21kLRv9zOYKiB5JDoCQUi7y
XCGQc1nLmdRjfOra8fTM1tVhmeQln/G58mynvCLc/XDCX5sgrS6evODAMVgpwsCu
RvSOK2CKiuwcXcehTEOMBsrSskyu7wfQB1sz1k7fjK0rVo84mqIOkCehrUYVZVw1
v0AQaIy+WV1YIoR/zMDsAVNP/CURxL5RtANh4tkt4aEMAaUhztZMgvPP
-----END CERTIFICATE-----
