Certificate:
    Data:
        Version: 3 (0x2)
        Serial Number: 1 (0x1)
        Signature Algorithm: sha256WithRSAEncryption
        Issuer: C=CN, ST=GuangDong, L=GuangZhou, O=ZZXIA, OU=GGBang, CN=ZZXIA-ROOT-CA/emailAddress=admin@zzxia.vip
        Validity
            Not Before: Mar  9 10:07:59 2022 GMT
            Not After : Mar  9 10:07:59 2023 GMT
        Subject: C=CN, ST=GuangDong, O=ZJLH, OU=IT, CN=zjlh.lan/emailAddress=admin@zjlh.lan
        Subject Public Key Info:
            Public Key Algorithm: rsaEncryption
                RSA Public-Key: (2048 bit)
                Modulus:
                    00:df:80:da:f8:fa:7c:02:5d:3a:57:8c:1a:80:23:
                    61:ae:3f:76:bb:10:50:f8:ad:27:0c:84:5e:77:94:
                    25:f5:2c:72:ad:2c:41:7d:47:e9:64:4f:82:e2:44:
                    77:5f:8b:55:4a:f7:4c:00:ab:d9:e1:94:67:30:ea:
                    cc:ac:0a:37:5f:68:3f:5d:95:88:31:bc:69:84:ba:
                    f3:67:42:ba:fb:a6:cc:4a:1c:1c:62:e7:17:06:f5:
                    05:94:85:70:32:7d:5c:20:56:30:4d:5d:6e:cf:d3:
                    8e:0a:db:47:02:64:df:e5:22:a1:8f:71:88:d7:91:
                    8c:26:f8:1f:09:08:77:9c:2d:91:cd:dc:55:a4:95:
                    0e:ea:c7:e1:c7:98:39:09:e8:9f:74:e7:55:4a:8e:
                    66:d3:07:f5:83:29:e2:51:3c:5a:df:6a:d7:c1:ff:
                    1a:be:2e:39:a5:75:33:a3:cc:47:dc:be:a1:ba:59:
                    a1:b4:45:7a:11:02:d8:9b:cf:b7:67:16:68:5e:db:
                    27:69:48:05:ea:87:ca:9a:62:c5:96:80:5a:66:51:
                    f7:d1:1e:39:10:c9:b2:2a:bf:7e:23:f6:e9:9f:c0:
                    aa:57:ab:5b:3d:ee:09:5f:66:91:bc:21:d9:8c:88:
                    ef:38:20:9b:44:01:39:7c:79:61:40:5d:36:9c:3e:
                    1a:d5
                Exponent: 65537 (0x10001)
        X509v3 extensions:
            X509v3 Basic Constraints: 
                CA:FALSE
            X509v3 Key Usage: 
                Digital Signature, Non Repudiation, Key Encipherment, Data Encipherment, Key Agreement
            X509v3 Extended Key Usage: 
                TLS Web Server Authentication
            X509v3 Subject Alternative Name: 
                DNS:zjlh.lan, DNS:*.zjlh.lan, DNS:docker-repo
    Signature Algorithm: sha256WithRSAEncryption
         3e:37:02:1b:f5:f3:5b:19:26:8e:8b:ac:5e:2d:28:01:d0:a2:
         23:0f:cc:8a:a9:12:fe:12:94:54:ec:04:eb:35:df:86:43:72:
         d5:f7:cd:ae:24:a3:d9:aa:fd:d7:0e:18:71:3d:d4:ba:cc:24:
         0f:39:47:d3:ca:f2:69:4c:84:f2:ce:06:f4:c0:0f:ee:3e:40:
         1e:93:20:2e:76:9d:06:74:3d:e6:c4:ad:8e:cc:7b:b9:9b:47:
         de:1a:65:28:97:f1:b3:cc:a8:e6:48:4b:64:0d:03:d1:a1:d6:
         48:8d:c8:5a:c9:f5:6e:59:e5:a4:2e:25:2e:de:79:f1:66:cc:
         57:54:69:47:64:e5:c6:01:83:3b:25:09:be:39:80:28:3b:b1:
         2f:76:c7:c0:41:fc:c2:dc:94:62:84:0d:f9:af:0e:1f:74:60:
         da:a2:5c:c1:5e:91:df:37:0f:40:fd:6e:a4:bb:0c:81:3d:ba:
         67:81:0f:62:e8:62:cc:f3:25:f9:0f:70:c9:a7:58:43:6a:c8:
         77:b4:e5:c8:68:ae:1b:36:5a:07:ca:dd:d8:d7:74:a5:6a:6a:
         2d:76:ef:27:2e:68:15:81:74:14:30:75:df:ad:82:ab:a4:a5:
         26:ec:de:2b:3c:39:be:36:17:ed:9c:85:79:8b:59:7b:47:af:
         cb:c6:6f:a8:b8:26:67:0a:3d:90:c8:88:b2:ce:33:6d:39:10:
         35:57:5b:47:99:e9:e0:c9:af:6a:29:76:7e:8f:58:04:33:0f:
         0e:8c:b8:09:ea:b4:38:34:9d:21:4a:8a:ad:de:ed:62:84:19:
         84:26:5e:e5:ab:5c:c8:84:cf:d9:61:b4:af:4c:c3:dd:af:7d:
         62:4a:3c:05:89:36:a8:5c:28:6f:df:55:2d:1e:f3:53:8b:d0:
         38:b6:4f:92:ac:1d:51:3e:ad:b2:0a:5d:bc:53:ff:4f:ba:49:
         3f:54:28:0f:c6:e0:f5:1d:0d:bb:c8:4d:62:ec:f1:9e:91:7d:
         13:6c:a4:06:ef:8a:bb:ac:68:b6:d1:f4:d5:86:16:44:ef:80:
         03:6d:59:e6:64:6d:b8:b4:8b:38:9c:24:b2:40:e8:8c:31:5f:
         fa:aa:e3:ed:4a:19:fc:66:1d:25:f4:c6:f0:c2:61:8e:4c:e5:
         55:ce:6b:9e:b2:a5:32:ac:f6:22:62:60:a8:8a:53:ea:a6:ed:
         af:a0:e1:43:73:84:1b:aa:d1:3b:69:c4:8e:3f:f9:45:83:95:
         3f:2a:13:69:f1:93:a4:b3:c3:60:28:c1:ef:95:99:5c:4f:5c:
         ac:27:25:37:34:ef:01:70:49:05:2e:a0:c1:b7:02:5f:c9:7e:
         ea:8e:e7:a2:86:be:45:13
-----BEGIN CERTIFICATE-----
MIIE1jCCAr6gAwIBAgIBATANBgkqhkiG9w0BAQsFADCBjjELMAkGA1UEBhMCQ04x
EjAQBgNVBAgMCUd1YW5nRG9uZzESMBAGA1UEBwwJR3VhbmdaaG91MQ4wDAYDVQQK
DAVaWlhJQTEPMA0GA1UECwwGR0dCYW5nMRYwFAYDVQQDDA1aWlhJQS1ST09ULUNB
MR4wHAYJKoZIhvcNAQkBFg9hZG1pbkB6enhpYS52aXAwHhcNMjIwMzA5MTAwNzU5
WhcNMjMwMzA5MTAwNzU5WjBvMQswCQYDVQQGEwJDTjESMBAGA1UECAwJR3VhbmdE
b25nMQ0wCwYDVQQKDARaSkxIMQswCQYDVQQLDAJJVDERMA8GA1UEAwwIempsaC5s
YW4xHTAbBgkqhkiG9w0BCQEWDmFkbWluQHpqbGgubGFuMIIBIjANBgkqhkiG9w0B
AQEFAAOCAQ8AMIIBCgKCAQEA34Da+Pp8Al06V4wagCNhrj92uxBQ+K0nDIRed5Ql
9SxyrSxBfUfpZE+C4kR3X4tVSvdMAKvZ4ZRnMOrMrAo3X2g/XZWIMbxphLrzZ0K6
+6bMShwcYucXBvUFlIVwMn1cIFYwTV1uz9OOCttHAmTf5SKhj3GI15GMJvgfCQh3
nC2RzdxVpJUO6sfhx5g5CeifdOdVSo5m0wf1gyniUTxa32rXwf8avi45pXUzo8xH
3L6hulmhtEV6EQLYm8+3ZxZoXtsnaUgF6ofKmmLFloBaZlH30R45EMmyKr9+I/bp
n8CqV6tbPe4JX2aRvCHZjIjvOCCbRAE5fHlhQF02nD4a1QIDAQABo10wWzAJBgNV
HRMEAjAAMAsGA1UdDwQEAwID+DATBgNVHSUEDDAKBggrBgEFBQcDATAsBgNVHREE
JTAjggh6amxoLmxhboIKKi56amxoLmxhboILZG9ja2VyLXJlcG8wDQYJKoZIhvcN
AQELBQADggIBAD43Ahv181sZJo6LrF4tKAHQoiMPzIqpEv4SlFTsBOs134ZDctX3
za4ko9mq/dcOGHE91LrMJA85R9PK8mlMhPLOBvTAD+4+QB6TIC52nQZ0PebErY7M
e7mbR94aZSiX8bPMqOZIS2QNA9Gh1kiNyFrJ9W5Z5aQuJS7eefFmzFdUaUdk5cYB
gzslCb45gCg7sS92x8BB/MLclGKEDfmvDh90YNqiXMFekd83D0D9bqS7DIE9umeB
D2LoYszzJfkPcMmnWENqyHe05chorhs2WgfK3djXdKVqai127ycuaBWBdBQwdd+t
gqukpSbs3is8Ob42F+2chXmLWXtHr8vGb6i4JmcKPZDIiLLOM205EDVXW0eZ6eDJ
r2opdn6PWAQzDw6MuAnqtDg0nSFKiq3e7WKEGYQmXuWrXMiEz9lhtK9Mw92vfWJK
PAWJNqhcKG/fVS0e81OL0Di2T5KsHVE+rbIKXbxT/0+6ST9UKA/G4PUdDbvITWLs
8Z6RfRNspAbvirusaLbR9NWGFkTvgANtWeZkbbi0izicJLJA6IwxX/qq4+1KGfxm
HSX0xvDCYY5M5VXOa56ypTKs9iJiYKiKU+qm7a+g4UNzhBuq0TtpxI4/+UWDlT8q
E2nxk6Szw2Aowe+VmVxPXKwnJTc07wFwSQUuoMG3Al/JfuqO56KGvkUT
-----END CERTIFICATE-----
